target datalayout = "e-m:e-p270:32:32-p271:32:32-p272:64:64-i64:64-i128:128-f80:128-n8:16:32:64-S128"
target triple = "x86_64-pc-linux-gnu"

; Function Attrs: nounwind uwtable
define internal void @parity_revtab_generator(ptr noundef %0, i32 noundef %1, i32 noundef %2, i32 noundef %3, i32 noundef %4, i32 noundef %5, i32 noundef %6, i32 noundef %7, i32 noundef %8, i32 noundef %9) #0 {
  %11 = alloca ptr, align 8
  %12 = alloca i32, align 4
  %13 = alloca i32, align 4
  %14 = alloca i32, align 4
  %15 = alloca i32, align 4
  %16 = alloca i32, align 4
  %17 = alloca i32, align 4
  %18 = alloca i32, align 4
  %19 = alloca i32, align 4
  %20 = alloca i32, align 4
  %21 = alloca i32, align 4
  %22 = alloca i32, align 4
  %23 = alloca i32, align 4
  %24 = alloca i32, align 4
  %25 = alloca i32, align 4
  %26 = alloca i32, align 4
  store ptr %0, ptr %11, align 8, !tbaa !32
  store i32 %1, ptr %12, align 4, !tbaa !11
  store i32 %2, ptr %13, align 4, !tbaa !11
  store i32 %3, ptr %14, align 4, !tbaa !11
  store i32 %4, ptr %15, align 4, !tbaa !11
  store i32 %5, ptr %16, align 4, !tbaa !11
  store i32 %6, ptr %17, align 4, !tbaa !11
  store i32 %7, ptr %18, align 4, !tbaa !11
  store i32 %8, ptr %19, align 4, !tbaa !11
  store i32 %9, ptr %20, align 4, !tbaa !11
  %27 = load i32, ptr %17, align 4, !tbaa !11
  %28 = ashr i32 %27, 1
  store i32 %28, ptr %17, align 4, !tbaa !11
  %29 = load i32, ptr %17, align 4, !tbaa !11
  %30 = load i32, ptr %18, align 4, !tbaa !11
  %31 = icmp sle i32 %29, %30
  br i1 %31, label %32, label %165

32:                                               ; preds = %10
  call void @llvm.lifetime.start.p0(i64 4, ptr %21) #11
  call void @llvm.lifetime.start.p0(i64 4, ptr %22) #11
  call void @llvm.lifetime.start.p0(i64 4, ptr %23) #11
  call void @llvm.lifetime.start.p0(i64 4, ptr %24) #11
  call void @llvm.lifetime.start.p0(i64 4, ptr %25) #11
  %33 = load i32, ptr %15, align 4, !tbaa !11
  %34 = icmp ne i32 %33, 0
  br i1 %34, label %35, label %38

35:                                               ; preds = %32
  %36 = load i32, ptr %19, align 4, !tbaa !11
  %37 = icmp ne i32 %36, 0
  br label %38

38:                                               ; preds = %35, %32
  %39 = phi i1 [ false, %32 ], [ %37, %35 ]
  %40 = zext i1 %39 to i32
  store i32 %40, ptr %15, align 4, !tbaa !11
  %41 = load i32, ptr %15, align 4, !tbaa !11
  %42 = load i32, ptr %16, align 4, !tbaa !11
  %43 = and i32 %41, %42
  store i32 %43, ptr %16, align 4, !tbaa !11
  %44 = load i32, ptr %15, align 4, !tbaa !11
  %45 = icmp ne i32 %44, 0
  br i1 %45, label %46, label %56

46:                                               ; preds = %38
  %47 = load i32, ptr %19, align 4, !tbaa !11
  %48 = load i32, ptr %17, align 4, !tbaa !11
  %49 = icmp sgt i32 %47, %48
  br i1 %49, label %50, label %52

50:                                               ; preds = %46
  %51 = load i32, ptr %17, align 4, !tbaa !11
  br label %54

52:                                               ; preds = %46
  %53 = load i32, ptr %19, align 4, !tbaa !11
  br label %54

54:                                               ; preds = %52, %50
  %55 = phi i32 [ %51, %50 ], [ %53, %52 ]
  br label %57

56:                                               ; preds = %38
  br label %57

57:                                               ; preds = %56, %54
  %58 = phi i32 [ %55, %54 ], [ 0, %56 ]
  store i32 %58, ptr %23, align 4, !tbaa !11
  %59 = load i32, ptr %14, align 4, !tbaa !11
  %60 = load i32, ptr %16, align 4, !tbaa !11
  %61 = load i32, ptr %23, align 4, !tbaa !11
  %62 = load i32, ptr %17, align 4, !tbaa !11
  %63 = mul nsw i32 2, %62
  %64 = sub nsw i32 %61, %63
  %65 = mul nsw i32 %60, %64
  %66 = add nsw i32 %59, %65
  store i32 %66, ptr %24, align 4, !tbaa !11
  %67 = load i32, ptr %24, align 4, !tbaa !11
  %68 = load i32, ptr %17, align 4, !tbaa !11
  %69 = add nsw i32 %67, %68
  %70 = load i32, ptr %15, align 4, !tbaa !11
  %71 = icmp ne i32 %70, 0
  br i1 %71, label %72, label %76

72:                                               ; preds = %57
  %73 = load i32, ptr %16, align 4, !tbaa !11
  %74 = icmp ne i32 %73, 0
  %75 = xor i1 %74, true
  br label %76

76:                                               ; preds = %72, %57
  %77 = phi i1 [ false, %57 ], [ %75, %72 ]
  %78 = zext i1 %77 to i32
  %79 = load i32, ptr %17, align 4, !tbaa !11
  %80 = mul nsw i32 %78, %79
  %81 = add nsw i32 %69, %80
  %82 = load i32, ptr %16, align 4, !tbaa !11
  %83 = load i32, ptr %17, align 4, !tbaa !11
  %84 = mul nsw i32 %82, %83
  %85 = add nsw i32 %81, %84
  store i32 %85, ptr %25, align 4, !tbaa !11
  call void @llvm.lifetime.start.p0(i64 4, ptr %26) #11
  store i32 0, ptr %26, align 4, !tbaa !11
  br label %86

86:                                               ; preds = %161, %76
  %87 = load i32, ptr %26, align 4, !tbaa !11
  %88 = load i32, ptr %17, align 4, !tbaa !11
  %89 = icmp slt i32 %87, %88
  br i1 %89, label %91, label %90

90:                                               ; preds = %86
  call void @llvm.lifetime.end.p0(i64 4, ptr %26) #11
  br label %164

91:                                               ; preds = %86
  %92 = load i32, ptr %14, align 4, !tbaa !11
  %93 = load i32, ptr %26, align 4, !tbaa !11
  %94 = mul nsw i32 %93, 2
  %95 = add nsw i32 %92, %94
  %96 = add nsw i32 %95, 0
  %97 = load i32, ptr %12, align 4, !tbaa !11
  %98 = load i32, ptr %13, align 4, !tbaa !11
  %99 = call i32 @split_radix_permutation(i32 noundef %96, i32 noundef %97, i32 noundef %98)
  %100 = sub nsw i32 0, %99
  %101 = load i32, ptr %12, align 4, !tbaa !11
  %102 = sub nsw i32 %101, 1
  %103 = and i32 %100, %102
  store i32 %103, ptr %21, align 4, !tbaa !11
  %104 = load i32, ptr %14, align 4, !tbaa !11
  %105 = load i32, ptr %26, align 4, !tbaa !11
  %106 = mul nsw i32 %105, 2
  %107 = add nsw i32 %104, %106
  %108 = add nsw i32 %107, 1
  %109 = load i32, ptr %12, align 4, !tbaa !11
  %110 = load i32, ptr %13, align 4, !tbaa !11
  %111 = call i32 @split_radix_permutation(i32 noundef %108, i32 noundef %109, i32 noundef %110)
  %112 = sub nsw i32 0, %111
  %113 = load i32, ptr %12, align 4, !tbaa !11
  %114 = sub nsw i32 %113, 1
  %115 = and i32 %112, %114
  store i32 %115, ptr %22, align 4, !tbaa !11
  %116 = load i32, ptr %20, align 4, !tbaa !11
  %117 = icmp ne i32 %116, 0
  br i1 %117, label %118, label %131

118:                                              ; preds = %91
  %119 = load i32, ptr %21, align 4, !tbaa !11
  %120 = load ptr, ptr %11, align 8, !tbaa !32
  %121 = load i32, ptr %24, align 4, !tbaa !11
  %122 = add nsw i32 %121, 1
  store i32 %122, ptr %24, align 4, !tbaa !11
  %123 = sext i32 %121 to i64
  %124 = getelementptr inbounds i32, ptr %120, i64 %123
  store i32 %119, ptr %124, align 4, !tbaa !11
  %125 = load i32, ptr %22, align 4, !tbaa !11
  %126 = load ptr, ptr %11, align 8, !tbaa !32
  %127 = load i32, ptr %25, align 4, !tbaa !11
  %128 = add nsw i32 %127, 1
  store i32 %128, ptr %25, align 4, !tbaa !11
  %129 = sext i32 %127 to i64
  %130 = getelementptr inbounds i32, ptr %126, i64 %129
  store i32 %125, ptr %130, align 4, !tbaa !11
  br label %144

131:                                              ; preds = %91
  %132 = load i32, ptr %24, align 4, !tbaa !11
  %133 = add nsw i32 %132, 1
  store i32 %133, ptr %24, align 4, !tbaa !11
  %134 = load ptr, ptr %11, align 8, !tbaa !32
  %135 = load i32, ptr %21, align 4, !tbaa !11
  %136 = sext i32 %135 to i64
  %137 = getelementptr inbounds i32, ptr %134, i64 %136
  store i32 %132, ptr %137, align 4, !tbaa !11
  %138 = load i32, ptr %25, align 4, !tbaa !11
  %139 = add nsw i32 %138, 1
  store i32 %139, ptr %25, align 4, !tbaa !11
  %140 = load ptr, ptr %11, align 8, !tbaa !32
  %141 = load i32, ptr %22, align 4, !tbaa !11
  %142 = sext i32 %141 to i64
  %143 = getelementptr inbounds i32, ptr %140, i64 %142
  store i32 %138, ptr %143, align 4, !tbaa !11
  br label %144

144:                                              ; preds = %131, %118
  %145 = load i32, ptr %23, align 4, !tbaa !11
  %146 = icmp ne i32 %145, 0
  br i1 %146, label %147, label %160

147:                                              ; preds = %144
  %148 = load i32, ptr %26, align 4, !tbaa !11
  %149 = add nsw i32 %148, 1
  %150 = load i32, ptr %23, align 4, !tbaa !11
  %151 = srem i32 %149, %150
  %152 = icmp ne i32 %151, 0
  br i1 %152, label %160, label %153

153:                                              ; preds = %147
  %154 = load i32, ptr %23, align 4, !tbaa !11
  %155 = load i32, ptr %24, align 4, !tbaa !11
  %156 = add nsw i32 %155, %154
  store i32 %156, ptr %24, align 4, !tbaa !11
  %157 = load i32, ptr %23, align 4, !tbaa !11
  %158 = load i32, ptr %25, align 4, !tbaa !11
  %159 = add nsw i32 %158, %157
  store i32 %159, ptr %25, align 4, !tbaa !11
  br label %160

160:                                              ; preds = %153, %147, %144
  br label %161

161:                                              ; preds = %160
  %162 = load i32, ptr %26, align 4, !tbaa !11
  %163 = add nsw i32 %162, 1
  store i32 %163, ptr %26, align 4, !tbaa !11
  br label %86, !llvm.loop !46

164:                                              ; preds = %90
  call void @llvm.lifetime.end.p0(i64 4, ptr %25) #11
  call void @llvm.lifetime.end.p0(i64 4, ptr %24) #11
  call void @llvm.lifetime.end.p0(i64 4, ptr %23) #11
  call void @llvm.lifetime.end.p0(i64 4, ptr %22) #11
  call void @llvm.lifetime.end.p0(i64 4, ptr %21) #11
  br label %202

165:                                              ; preds = %10
  %166 = load ptr, ptr %11, align 8, !tbaa !32
  %167 = load i32, ptr %12, align 4, !tbaa !11
  %168 = load i32, ptr %13, align 4, !tbaa !11
  %169 = load i32, ptr %14, align 4, !tbaa !11
  %170 = load i32, ptr %17, align 4, !tbaa !11
  %171 = ashr i32 %170, 0
  %172 = load i32, ptr %18, align 4, !tbaa !11
  %173 = load i32, ptr %19, align 4, !tbaa !11
  %174 = load i32, ptr %20, align 4, !tbaa !11
  call void @parity_revtab_generator(ptr noundef %166, i32 noundef %167, i32 noundef %168, i32 noundef %169, i32 noundef 0, i32 noundef 0, i32 noundef %171, i32 noundef %172, i32 noundef %173, i32 noundef %174)
  %175 = load ptr, ptr %11, align 8, !tbaa !32
  %176 = load i32, ptr %12, align 4, !tbaa !11
  %177 = load i32, ptr %13, align 4, !tbaa !11
  %178 = load i32, ptr %14, align 4, !tbaa !11
  %179 = load i32, ptr %17, align 4, !tbaa !11
  %180 = ashr i32 %179, 0
  %181 = add nsw i32 %178, %180
  %182 = load i32, ptr %17, align 4, !tbaa !11
  %183 = ashr i32 %182, 1
  %184 = load i32, ptr %18, align 4, !tbaa !11
  %185 = load i32, ptr %19, align 4, !tbaa !11
  %186 = load i32, ptr %20, align 4, !tbaa !11
  call void @parity_revtab_generator(ptr noundef %175, i32 noundef %176, i32 noundef %177, i32 noundef %181, i32 noundef 1, i32 noundef 0, i32 noundef %183, i32 noundef %184, i32 noundef %185, i32 noundef %186)
  %187 = load ptr, ptr %11, align 8, !tbaa !32
  %188 = load i32, ptr %12, align 4, !tbaa !11
  %189 = load i32, ptr %13, align 4, !tbaa !11
  %190 = load i32, ptr %14, align 4, !tbaa !11
  %191 = load i32, ptr %17, align 4, !tbaa !11
  %192 = ashr i32 %191, 0
  %193 = add nsw i32 %190, %192
  %194 = load i32, ptr %17, align 4, !tbaa !11
  %195 = ashr i32 %194, 1
  %196 = add nsw i32 %193, %195
  %197 = load i32, ptr %17, align 4, !tbaa !11
  %198 = ashr i32 %197, 1
  %199 = load i32, ptr %18, align 4, !tbaa !11
  %200 = load i32, ptr %19, align 4, !tbaa !11
  %201 = load i32, ptr %20, align 4, !tbaa !11
  call void @parity_revtab_generator(ptr noundef %187, i32 noundef %188, i32 noundef %189, i32 noundef %196, i32 noundef 1, i32 noundef 1, i32 noundef %198, i32 noundef %199, i32 noundef %200, i32 noundef %201)
  br label %202

202:                                              ; preds = %165, %164
  ret void
}